target datalayout = "e-m:e-p270:32:32-p271:32:32-p272:64:64-i64:64-i128:128-f80:128-n8:16:32:64-S128"
target triple = "x86_64-pc-linux-gnu"

%struct.Curl_multi = type { i32, i32, i32, %struct.Curl_llist, %struct.Curl_llist, %struct.Curl_llist, %struct.Curl_llist, i64, ptr, ptr, ptr, ptr, %struct.Curl_hash, ptr, %struct.PslCache, ptr, ptr, i64, ptr, i64, ptr, i64, %struct.Curl_hash, %struct.Curl_hash, %struct.cpool, i64, i64, ptr, ptr, i64, %struct.curltime, [2 x i32], i32, i32, i8, i8 }
%struct.Curl_llist = type { ptr, ptr, ptr, i64 }
%struct.PslCache = type { ptr, i64, i8 }
%struct.Curl_hash = type { ptr, ptr, ptr, ptr, i64, i64 }
%struct.cpool = type { %struct.Curl_hash, i64, i64, i64, %struct.curltime, %struct.Curl_llist, ptr, ptr, ptr, ptr, i8 }
%struct.curltime = type { i64, i32 }
%struct.Curl_llist_node = type { ptr, ptr, ptr, ptr }
%struct.Curl_easy = type { i32, i64, i64, ptr, %struct.Curl_llist_node, %struct.Curl_llist_node, i32, i32, %struct.Curl_message, %struct.easy_pollset, %struct.Names, ptr, ptr, ptr, ptr, %struct.SingleRequest, %struct.UserDefined, ptr, ptr, ptr, %struct.Progress, %struct.UrlState, ptr, %struct.PureInfo, %struct.curl_tlssessioninfo }
%struct.Curl_message = type { %struct.Curl_llist_node, %struct.CURLMsg }
%struct.CURLMsg = type { i32, ptr, %union.anon }
%union.anon = type { ptr }
%struct.easy_pollset = type { [5 x i32], i32, [5 x i8] }
%struct.Names = type { ptr, i32 }
%struct.SingleRequest = type <{ i64, i64, i64, i64, %struct.curltime, i32, i32, i32, i32, i64, i32, i32, i8, i8, [2 x i8], i32, ptr, ptr, %struct.bufq, i64, i64, ptr, ptr, %union.anon.0, ptr, i8, i32, [3 x i8] }>
%struct.bufq = type { ptr, ptr, ptr, ptr, i64, i64, i64, i32 }
%union.anon.0 = type { ptr }
%struct.UserDefined = type <{ ptr, ptr, ptr, ptr, ptr, ptr, i64, i64, i64, ptr, ptr, i64, ptr, ptr, ptr, ptr, ptr, ptr, ptr, ptr, ptr, ptr, ptr, ptr, ptr, ptr, ptr, ptr, ptr, ptr, ptr, ptr, ptr, ptr, ptr, i64, i64, i64, i64, i64, i64, i64, i64, i64, ptr, ptr, %struct.curl_mimepart, ptr, ptr, ptr, i64, %struct.ssl_config_data, %struct.ssl_config_data, ptr, i16, i8, i8, %struct.ssl_general_config, i32, i32, i32, [4 x i8], ptr, ptr, i64, i32, i8, i8, i8, i8, ptr, ptr, ptr, i32, [4 x i8], [74 x ptr], [8 x ptr], i32, i32, i32, [4 x i8], ptr, i32, [4 x i8], ptr, ptr, ptr, ptr, ptr, i32, i32, i32, i32, i32, i32, i32, i32, i64, ptr, ptr, i64, ptr, i64, ptr, ptr, ptr, ptr, i32, i16, i16, i16, i8, i8, i8, i8, i8, i8, i8, i8, i64, [6 x i8] }>
%struct.curl_mimepart = type { ptr, ptr, i32, i32, ptr, ptr, ptr, ptr, ptr, ptr, ptr, ptr, ptr, ptr, ptr, i64, %struct.mime_state, ptr, %struct.mime_encoder_state, i64 }
%struct.mime_state = type { i32, ptr, i64 }
%struct.mime_encoder_state = type { i64, i64, i64, [256 x i8] }
%struct.ssl_config_data = type { %struct.ssl_primary_config, i64, ptr, ptr, ptr, ptr, ptr, ptr, ptr, i16 }
%struct.ssl_primary_config = type { ptr, ptr, ptr, ptr, ptr, ptr, ptr, ptr, ptr, ptr, ptr, ptr, ptr, ptr, i8, i32, i8, i8 }
%struct.ssl_general_config = type { i32 }
%struct.Progress = type { i64, %struct.pgrs_dir, %struct.pgrs_dir, i64, i64, i32, i32, i64, i64, i64, i64, i64, i64, i64, i64, i64, %struct.curltime, %struct.curltime, %struct.curltime, %struct.curltime, %struct.curltime, [6 x i64], [6 x %struct.curltime], i32, i8 }
%struct.pgrs_dir = type { i64, i64, i64, %struct.pgrs_measure }
%struct.pgrs_measure = type { %struct.curltime, i64 }
%struct.UrlState = type { %struct.curltime, i64, i64, %struct.dynbuf, ptr, i64, ptr, i32, i32, i32, ptr, i32, i64, i32, ptr, %struct.digestdata, %struct.digestdata, %struct.auth, %struct.auth, %struct.Curl_async, ptr, i8, %struct.curltime, %struct.Curl_tree, %struct.Curl_llist, [15 x %struct.time_node], ptr, ptr, i64, i64, i64, i64, [32 x i8], i64, ptr, ptr, ptr, %struct.urlpieces, ptr, ptr, ptr, ptr, ptr, i64, %struct.dynbuf, %struct.Curl_llist, [2 x %struct.curl_header], ptr, i32, ptr, ptr, %struct.store_netrc, %struct.dynamically_allocated_data, i8, i8, i8, i8, i32 }
%struct.digestdata = type { ptr, ptr, ptr, ptr, ptr, ptr, i32, i8, i8 }
%struct.auth = type { i64, i64, i64, i8 }
%struct.Curl_async = type { ptr, ptr, ptr, ptr, i32, i32, i8 }
%struct.Curl_tree = type { ptr, ptr, ptr, ptr, %struct.curltime, ptr }
%struct.time_node = type { %struct.Curl_llist_node, %struct.curltime, i32 }
%struct.urlpieces = type { ptr, ptr, ptr, ptr, ptr, ptr, ptr, ptr }
%struct.dynbuf = type { ptr, i64, i64, i64 }
%struct.curl_header = type { ptr, ptr, i64, i64, i32, ptr }
%struct.store_netrc = type { %struct.dynbuf, ptr, i8 }
%struct.dynamically_allocated_data = type { ptr, ptr, ptr, ptr, ptr, ptr, ptr, ptr, ptr, ptr, ptr, ptr, ptr, ptr }
%struct.PureInfo = type { i32, i32, i32, i64, i64, i64, i64, i64, i64, i64, ptr, ptr, i64, i32, %struct.ip_quadruple, i32, ptr, i32, %struct.curl_certinfo, i32, i8 }
%struct.ip_quadruple = type { [46 x i8], [46 x i8], i32, i32 }
%struct.curl_certinfo = type { i32, ptr }
%struct.curl_tlssessioninfo = type { i32, ptr }

; Function Attrs: nounwind uwtable
define hidden ptr @Curl_multi_get_handle(ptr noundef %0, i64 noundef %1) #0 {
  %3 = alloca ptr, align 8
  %4 = alloca ptr, align 8
  %5 = alloca i64, align 8
  %6 = alloca ptr, align 8
  %7 = alloca ptr, align 8
  %8 = alloca i32, align 4
  store ptr %0, ptr %4, align 8, !tbaa !9
  store i64 %1, ptr %5, align 8, !tbaa !3
  %9 = load i64, ptr %5, align 8, !tbaa !3
  %10 = icmp sge i64 %9, 0
  br i1 %10, label %11, label %78

11:                                               ; preds = %2
  call void @llvm.lifetime.start.p0(i64 8, ptr %6) #9
  call void @llvm.lifetime.start.p0(i64 8, ptr %7) #9
  %12 = load ptr, ptr %4, align 8, !tbaa !9
  %13 = getelementptr inbounds nuw %struct.Curl_multi, ptr %12, i32 0, i32 4
  %14 = call ptr @Curl_llist_head(ptr noundef %13)
  store ptr %14, ptr %7, align 8, !tbaa !115
  br label %15

15:                                               ; preds = %29, %11
  %16 = load ptr, ptr %7, align 8, !tbaa !115
  %17 = icmp ne ptr %16, null
  br i1 %17, label %18, label %32

18:                                               ; preds = %15
  %19 = load ptr, ptr %7, align 8, !tbaa !115
  %20 = call ptr @Curl_node_elem(ptr noundef %19)
  store ptr %20, ptr %6, align 8, !tbaa !43
  %21 = load ptr, ptr %6, align 8, !tbaa !43
  %22 = getelementptr inbounds nuw %struct.Curl_easy, ptr %21, i32 0, i32 2
  %23 = load i64, ptr %22, align 8, !tbaa !114
  %24 = load i64, ptr %5, align 8, !tbaa !3
  %25 = icmp eq i64 %23, %24
  br i1 %25, label %26, label %28

26:                                               ; preds = %18
  %27 = load ptr, ptr %6, align 8, !tbaa !43
  store ptr %27, ptr %3, align 8
  store i32 1, ptr %8, align 4
  br label %75

28:                                               ; preds = %18
  br label %29

29:                                               ; preds = %28
  %30 = load ptr, ptr %7, align 8, !tbaa !115
  %31 = call ptr @Curl_node_next(ptr noundef %30)
  store ptr %31, ptr %7, align 8, !tbaa !115
  br label %15, !llvm.loop !256

32:                                               ; preds = %15
  %33 = load ptr, ptr %4, align 8, !tbaa !9
  %34 = getelementptr inbounds nuw %struct.Curl_multi, ptr %33, i32 0, i32 6
  %35 = call ptr @Curl_llist_head(ptr noundef %34)
  store ptr %35, ptr %7, align 8, !tbaa !115
  br label %36

36:                                               ; preds = %50, %32
  %37 = load ptr, ptr %7, align 8, !tbaa !115
  %38 = icmp ne ptr %37, null
  br i1 %38, label %39, label %53

39:                                               ; preds = %36
  %40 = load ptr, ptr %7, align 8, !tbaa !115
  %41 = call ptr @Curl_node_elem(ptr noundef %40)
  store ptr %41, ptr %6, align 8, !tbaa !43
  %42 = load ptr, ptr %6, align 8, !tbaa !43
  %43 = getelementptr inbounds nuw %struct.Curl_easy, ptr %42, i32 0, i32 2
  %44 = load i64, ptr %43, align 8, !tbaa !114
  %45 = load i64, ptr %5, align 8, !tbaa !3
  %46 = icmp eq i64 %44, %45
  br i1 %46, label %47, label %49

47:                                               ; preds = %39
  %48 = load ptr, ptr %6, align 8, !tbaa !43
  store ptr %48, ptr %3, align 8
  store i32 1, ptr %8, align 4
  br label %75

49:                                               ; preds = %39
  br label %50

50:                                               ; preds = %49
  %51 = load ptr, ptr %7, align 8, !tbaa !115
  %52 = call ptr @Curl_node_next(ptr noundef %51)
  store ptr %52, ptr %7, align 8, !tbaa !115
  br label %36, !llvm.loop !257

53:                                               ; preds = %36
  %54 = load ptr, ptr %4, align 8, !tbaa !9
  %55 = getelementptr inbounds nuw %struct.Curl_multi, ptr %54, i32 0, i32 5
  %56 = call ptr @Curl_llist_head(ptr noundef %55)
  store ptr %56, ptr %7, align 8, !tbaa !115
  br label %57

57:                                               ; preds = %71, %53
  %58 = load ptr, ptr %7, align 8, !tbaa !115
  %59 = icmp ne ptr %58, null
  br i1 %59, label %60, label %74

60:                                               ; preds = %57
  %61 = load ptr, ptr %7, align 8, !tbaa !115
  %62 = call ptr @Curl_node_elem(ptr noundef %61)
  store ptr %62, ptr %6, align 8, !tbaa !43
  %63 = load ptr, ptr %6, align 8, !tbaa !43
  %64 = getelementptr inbounds nuw %struct.Curl_easy, ptr %63, i32 0, i32 2
  %65 = load i64, ptr %64, align 8, !tbaa !114
  %66 = load i64, ptr %5, align 8, !tbaa !3
  %67 = icmp eq i64 %65, %66
  br i1 %67, label %68, label %70

68:                                               ; preds = %60
  %69 = load ptr, ptr %6, align 8, !tbaa !43
  store ptr %69, ptr %3, align 8
  store i32 1, ptr %8, align 4
  br label %75

70:                                               ; preds = %60
  br label %71

71:                                               ; preds = %70
  %72 = load ptr, ptr %7, align 8, !tbaa !115
  %73 = call ptr @Curl_node_next(ptr noundef %72)
  store ptr %73, ptr %7, align 8, !tbaa !115
  br label %57, !llvm.loop !258

74:                                               ; preds = %57
  store i32 0, ptr %8, align 4
  br label %75

75:                                               ; preds = %74, %68, %47, %26
  call void @llvm.lifetime.end.p0(i64 8, ptr %7) #9
  call void @llvm.lifetime.end.p0(i64 8, ptr %6) #9
  %76 = load i32, ptr %8, align 4
  switch i32 %76, label %81 [
    i32 0, label %77
    i32 1, label %79
  ]

77:                                               ; preds = %75
  br label %78

78:                                               ; preds = %77, %2
  store ptr null, ptr %3, align 8
  br label %79

79:                                               ; preds = %78, %75
  %80 = load ptr, ptr %3, align 8
  ret ptr %80

81:                                               ; preds = %75
  unreachable
}