; Function Attrs: nounwind uwtable
define hidden ptr @Curl_multi_get_handle(ptr noundef %0, i64 noundef %1) local_unnamed_addr #0 {
  %3 = icmp sgt i64 %1, -1
  br i1 %3, label %4, label %.thread

4:                                                ; preds = %2
  %5 = getelementptr inbounds nuw i8, ptr %0, i64 48
  %6 = tail call ptr @Curl_llist_head(ptr noundef nonnull %5) #19
  %.not35 = icmp eq ptr %6, null
  br i1 %.not35, label %._crit_edge, label %.lr.ph

.lr.ph:                                           ; preds = %4, %11
  %.02336 = phi ptr [ %12, %11 ], [ %6, %4 ]
  %7 = tail call ptr @Curl_node_elem(ptr noundef nonnull %.02336) #19
  %8 = getelementptr inbounds nuw i8, ptr %7, i64 16
  %9 = load i64, ptr %8, align 8, !tbaa !107
  %10 = icmp eq i64 %9, %1
  br i1 %10, label %.thread, label %11

11:                                               ; preds = %.lr.ph
  %12 = tail call ptr @Curl_node_next(ptr noundef nonnull %.02336) #19
  %.not = icmp eq ptr %12, null
  br i1 %.not, label %._crit_edge, label %.lr.ph, !llvm.loop !241

._crit_edge:                                      ; preds = %11, %4
  %13 = getelementptr inbounds nuw i8, ptr %0, i64 112
  %14 = tail call ptr @Curl_llist_head(ptr noundef nonnull %13) #19
  %.not2737 = icmp eq ptr %14, null
  br i1 %.not2737, label %._crit_edge41, label %.lr.ph40

.lr.ph40:                                         ; preds = %._crit_edge, %19
  %.138 = phi ptr [ %20, %19 ], [ %14, %._crit_edge ]
  %15 = tail call ptr @Curl_node_elem(ptr noundef nonnull %.138) #19
  %16 = getelementptr inbounds nuw i8, ptr %15, i64 16
  %17 = load i64, ptr %16, align 8, !tbaa !107
  %18 = icmp eq i64 %17, %1
  br i1 %18, label %.thread, label %19

19:                                               ; preds = %.lr.ph40
  %20 = tail call ptr @Curl_node_next(ptr noundef nonnull %.138) #19
  %.not27 = icmp eq ptr %20, null
  br i1 %.not27, label %._crit_edge41, label %.lr.ph40, !llvm.loop !242

._crit_edge41:                                    ; preds = %19, %._crit_edge
  %21 = getelementptr inbounds nuw i8, ptr %0, i64 80
  %22 = tail call ptr @Curl_llist_head(ptr noundef nonnull %21) #19
  %.not2842 = icmp eq ptr %22, null
  br i1 %.not2842, label %.thread, label %.lr.ph45

.lr.ph45:                                         ; preds = %._crit_edge41, %27
  %.243 = phi ptr [ %28, %27 ], [ %22, %._crit_edge41 ]
  %23 = tail call ptr @Curl_node_elem(ptr noundef nonnull %.243) #19
  %24 = getelementptr inbounds nuw i8, ptr %23, i64 16
  %25 = load i64, ptr %24, align 8, !tbaa !107
  %26 = icmp eq i64 %25, %1
  br i1 %26, label %.thread, label %27

27:                                               ; preds = %.lr.ph45
  %28 = tail call ptr @Curl_node_next(ptr noundef nonnull %.243) #19
  %.not28 = icmp eq ptr %28, null
  br i1 %.not28, label %.thread, label %.lr.ph45, !llvm.loop !243

.thread:                                          ; preds = %.lr.ph, %.lr.ph40, %27, %.lr.ph45, %._crit_edge41, %2
  %.125 = phi ptr [ null, %2 ], [ null, %._crit_edge41 ], [ null, %27 ], [ %23, %.lr.ph45 ], [ %15, %.lr.ph40 ], [ %7, %.lr.ph ]
  ret ptr %.125
}